target datalayout = "e-m:e-p270:32:32-p271:32:32-p272:64:64-i64:64-i128:128-f80:128-n8:16:32:64-S128"
target triple = "x86_64-pc-linux-gnu"

%"struct.gmx::NbnxmKernelSetup" = type { i32, i32 }

; Function Attrs: mustprogress nounwind uwtable
define noundef i32 @_ZN5nblib22translateBenchmarkEnumERKNS_11SimdKernelsE(ptr noundef nonnull align 4 dereferenceable(4) %0) #3 {
  %2 = alloca ptr, align 8
  %3 = alloca i32, align 4
  store ptr %0, ptr %2, align 8, !tbaa !24
  call void @llvm.lifetime.start.p0(i64 4, ptr %3) #16
  %4 = load ptr, ptr %2, align 8, !tbaa !24
  %5 = load i32, ptr %4, align 4, !tbaa !25
  store i32 %5, ptr %3, align 4, !tbaa !4
  %6 = load i32, ptr %3, align 4, !tbaa !4
  call void @llvm.lifetime.end.p0(i64 4, ptr %3) #16
  ret i32 %6
}

; Function Attrs: inlinehint mustprogress nounwind uwtable
define linkonce_odr void @_ZN3gmx16NbnxmKernelSetupC2Ev(ptr noundef nonnull align 4 dereferenceable(8) %0) unnamed_addr #5 comdat align 2 {
  %2 = alloca ptr, align 8
  store ptr %0, ptr %2, align 8, !tbaa !67
  %3 = load ptr, ptr %2, align 8
  %4 = getelementptr inbounds nuw %"struct.gmx::NbnxmKernelSetup", ptr %3, i32 0, i32 0
  store i32 0, ptr %4, align 4, !tbaa !60
  %5 = getelementptr inbounds nuw %"struct.gmx::NbnxmKernelSetup", ptr %3, i32 0, i32 1
  store i32 0, ptr %5, align 4, !tbaa !64
  ret void
}

; Function Attrs: mustprogress uwtable
define i64 @_ZN5nblib20createKernelSetupCPUENS_11SimdKernelsEb(i32 noundef %0, i1 noundef zeroext %1) #0 {
  %3 = alloca %"struct.gmx::NbnxmKernelSetup", align 4
  %4 = alloca i32, align 4
  %5 = alloca i8, align 1
  store i32 %0, ptr %4, align 4, !tbaa !25
  %6 = zext i1 %1 to i8
  store i8 %6, ptr %5, align 1, !tbaa !58
  %7 = load i32, ptr %4, align 4, !tbaa !25
  call void @_ZN5nblib20checkKernelSetupSimdENS_11SimdKernelsE(i32 noundef %7)
  call void @_ZN3gmx16NbnxmKernelSetupC2Ev(ptr noundef nonnull align 4 dereferenceable(8) %3) #16
  %8 = call noundef i32 @_ZN5nblib22translateBenchmarkEnumERKNS_11SimdKernelsE(ptr noundef nonnull align 4 dereferenceable(4) %4)
  %9 = getelementptr inbounds nuw %"struct.gmx::NbnxmKernelSetup", ptr %3, i32 0, i32 0
  store i32 %8, ptr %9, align 4, !tbaa !60
  %10 = getelementptr inbounds nuw %"struct.gmx::NbnxmKernelSetup", ptr %3, i32 0, i32 0
  %11 = load i32, ptr %10, align 4, !tbaa !60
  %12 = icmp eq i32 %11, 1
  br i1 %12, label %13, label %15

13:                                               ; preds = %2
  %14 = getelementptr inbounds nuw %"struct.gmx::NbnxmKernelSetup", ptr %3, i32 0, i32 1
  store i32 1, ptr %14, align 4, !tbaa !64
  br label %20

15:                                               ; preds = %2
  %16 = load i8, ptr %5, align 1, !tbaa !58, !range !65, !noundef !66
  %17 = trunc i8 %16 to i1
  %18 = select i1 %17, i32 1, i32 2
  %19 = getelementptr inbounds nuw %"struct.gmx::NbnxmKernelSetup", ptr %3, i32 0, i32 1
  store i32 %18, ptr %19, align 4, !tbaa !64
  br label %20

20:                                               ; preds = %15, %13
  %21 = load i64, ptr %3, align 4
  ret i64 %21
}