; Function Attrs: mustprogress uwtable
define range(i64 4294967296, 12884901888) i64 @_ZN5nblib20createKernelSetupCPUENS_11SimdKernelsEb(i32 noundef %0, i1 noundef zeroext %1) local_unnamed_addr #3 {
  tail call void @_ZN5nblib20checkKernelSetupSimdENS_11SimdKernelsE(i32 noundef %0)
  %3 = icmp eq i32 %0, 1
  %4 = or i1 %3, %1
  %.sroa.3.0.insert.ext = select i1 %4, i64 4294967296, i64 8589934592
  %.sroa.0.0.insert.ext = zext i32 %0 to i64
  %.sroa.0.0.insert.insert = or disjoint i64 %.sroa.3.0.insert.ext, %.sroa.0.0.insert.ext
  ret i64 %.sroa.0.0.insert.insert
}